; Function Attrs: mustprogress uwtable
define internal void @_ZNK7doctest6detail12ContextScopeIZN12_GLOBAL__N_122DOCTEST_ANON_CLASS_1241fEvEUlPSoE_E9stringifyES4_(ptr noundef nonnull readonly align 8 captures(none) dereferenceable(24) %0, ptr noundef %1) unnamed_addr #5 align 2 personality ptr @__gxx_personality_v0 {
  %3 = alloca %"struct.doctest::detail::MessageBuilder", align 8
  %4 = getelementptr inbounds nuw i8, ptr %0, i64 16
  call void @llvm.lifetime.start.p0(i64 56, ptr nonnull %3)
  call void @_ZN7doctest6detail14MessageBuilderC1EPKciNS_10assertType4EnumE(ptr noundef nonnull align 8 dereferenceable(49) %3, ptr noundef nonnull @.str.57, i32 noundef 593, i32 noundef 1)
  %5 = getelementptr inbounds nuw i8, ptr %3, i64 40
  store ptr %1, ptr %5, align 8
  %6 = load ptr, ptr %4, align 8
  %7 = invoke noundef nonnull align 8 dereferenceable(49) ptr @_ZN7doctest6detail14MessageBuildercmIPKN4Luau4TypeEEERS1_RKT_(ptr noundef nonnull align 8 dereferenceable(49) %3, ptr noundef nonnull align 8 dereferenceable(8) %6)
          to label %_ZZN12_GLOBAL__N_122DOCTEST_ANON_CLASS_1241fEvENKUlPSoE_clES1_.exit unwind label %8

8:                                                ; preds = %2
  %9 = landingpad { ptr, i32 }
          cleanup
  call void @_ZN7doctest6detail14MessageBuilderD1Ev(ptr noundef nonnull align 8 dereferenceable(49) %3) #21
  resume { ptr, i32 } %9

_ZZN12_GLOBAL__N_122DOCTEST_ANON_CLASS_1241fEvENKUlPSoE_clES1_.exit: ; preds = %2
  call void @_ZN7doctest6detail14MessageBuilderD1Ev(ptr noundef nonnull align 8 dereferenceable(49) %3) #21
  call void @llvm.lifetime.end.p0(i64 56, ptr nonnull %3)
  ret void
}